target datalayout = "e-m:e-p270:32:32-p271:32:32-p272:64:64-i64:64-i128:128-f80:128-n8:16:32:64-S128"
target triple = "x86_64-pc-linux-gnu"

%struct.lhash_st = type { ptr, ptr, ptr, ptr, ptr, ptr, ptr, i32, i32, i32, i32, i64, i64, i64, i32 }
%struct.lhash_node_st = type { ptr, ptr, i64 }

@.str = private unnamed_addr constant [32 x i8] c"../openssl/crypto/lhash/lhash.c\00", align 1

; Function Attrs: nounwind uwtable
define void @OPENSSL_LH_flush(ptr noundef %0) #0 {
  %2 = alloca ptr, align 8
  %3 = alloca i32, align 4
  %4 = alloca ptr, align 8
  %5 = alloca ptr, align 8
  %6 = alloca i32, align 4
  store ptr %0, ptr %2, align 8, !tbaa !3
  call void @llvm.lifetime.start.p0(i64 4, ptr %3) #5
  call void @llvm.lifetime.start.p0(i64 8, ptr %4) #5
  call void @llvm.lifetime.start.p0(i64 8, ptr %5) #5
  %7 = load ptr, ptr %2, align 8, !tbaa !3
  %8 = icmp eq ptr %7, null
  br i1 %8, label %9, label %10

9:                                                ; preds = %1
  store i32 1, ptr %6, align 4
  br label %47

10:                                               ; preds = %1
  store i32 0, ptr %3, align 4, !tbaa !29
  br label %11

11:                                               ; preds = %41, %10
  %12 = load i32, ptr %3, align 4, !tbaa !29
  %13 = load ptr, ptr %2, align 8, !tbaa !3
  %14 = getelementptr inbounds nuw %struct.lhash_st, ptr %13, i32 0, i32 7
  %15 = load i32, ptr %14, align 8, !tbaa !20
  %16 = icmp ult i32 %12, %15
  br i1 %16, label %17, label %44

17:                                               ; preds = %11
  %18 = load ptr, ptr %2, align 8, !tbaa !3
  %19 = getelementptr inbounds nuw %struct.lhash_st, ptr %18, i32 0, i32 0
  %20 = load ptr, ptr %19, align 8, !tbaa !17
  %21 = load i32, ptr %3, align 4, !tbaa !29
  %22 = zext i32 %21 to i64
  %23 = getelementptr inbounds nuw ptr, ptr %20, i64 %22
  %24 = load ptr, ptr %23, align 8, !tbaa !32
  store ptr %24, ptr %4, align 8, !tbaa !32
  br label %25

25:                                               ; preds = %28, %17
  %26 = load ptr, ptr %4, align 8, !tbaa !32
  %27 = icmp ne ptr %26, null
  br i1 %27, label %28, label %34

28:                                               ; preds = %25
  %29 = load ptr, ptr %4, align 8, !tbaa !32
  %30 = getelementptr inbounds nuw %struct.lhash_node_st, ptr %29, i32 0, i32 1
  %31 = load ptr, ptr %30, align 8, !tbaa !34
  store ptr %31, ptr %5, align 8, !tbaa !32
  %32 = load ptr, ptr %4, align 8, !tbaa !32
  call void @CRYPTO_free(ptr noundef %32, ptr noundef @.str, i32 noundef 108)
  %33 = load ptr, ptr %5, align 8, !tbaa !32
  store ptr %33, ptr %4, align 8, !tbaa !32
  br label %25, !llvm.loop !36

34:                                               ; preds = %25
  %35 = load ptr, ptr %2, align 8, !tbaa !3
  %36 = getelementptr inbounds nuw %struct.lhash_st, ptr %35, i32 0, i32 0
  %37 = load ptr, ptr %36, align 8, !tbaa !17
  %38 = load i32, ptr %3, align 4, !tbaa !29
  %39 = zext i32 %38 to i64
  %40 = getelementptr inbounds nuw ptr, ptr %37, i64 %39
  store ptr null, ptr %40, align 8, !tbaa !32
  br label %41

41:                                               ; preds = %34
  %42 = load i32, ptr %3, align 4, !tbaa !29
  %43 = add i32 %42, 1
  store i32 %43, ptr %3, align 4, !tbaa !29
  br label %11, !llvm.loop !37

44:                                               ; preds = %11
  %45 = load ptr, ptr %2, align 8, !tbaa !3
  %46 = getelementptr inbounds nuw %struct.lhash_st, ptr %45, i32 0, i32 13
  store i64 0, ptr %46, align 8, !tbaa !38
  store i32 0, ptr %6, align 4
  br label %47

47:                                               ; preds = %44, %9
  call void @llvm.lifetime.end.p0(i64 8, ptr %5) #5
  call void @llvm.lifetime.end.p0(i64 8, ptr %4) #5
  call void @llvm.lifetime.end.p0(i64 4, ptr %3) #5
  %48 = load i32, ptr %6, align 4
  switch i32 %48, label %50 [
    i32 0, label %49
    i32 1, label %49
  ]

49:                                               ; preds = %47, %47
  ret void

50:                                               ; preds = %47
  unreachable
}

; Function Attrs: nounwind uwtable
define void @OPENSSL_LH_free(ptr noundef %0) #0 {
  %2 = alloca ptr, align 8
  store ptr %0, ptr %2, align 8, !tbaa !3
  %3 = load ptr, ptr %2, align 8, !tbaa !3
  %4 = icmp eq ptr %3, null
  br i1 %4, label %5, label %6

5:                                                ; preds = %1
  br label %12

6:                                                ; preds = %1
  %7 = load ptr, ptr %2, align 8, !tbaa !3
  call void @OPENSSL_LH_flush(ptr noundef %7)
  %8 = load ptr, ptr %2, align 8, !tbaa !3
  %9 = getelementptr inbounds nuw %struct.lhash_st, ptr %8, i32 0, i32 0
  %10 = load ptr, ptr %9, align 8, !tbaa !17
  call void @CRYPTO_free(ptr noundef %10, ptr noundef @.str, i32 noundef 92)
  %11 = load ptr, ptr %2, align 8, !tbaa !3
  call void @CRYPTO_free(ptr noundef %11, ptr noundef @.str, i32 noundef 93)
  br label %12

12:                                               ; preds = %6, %5
  ret void
}