; Function Attrs: nounwind uwtable
define void @OPENSSL_LH_free(ptr noundef %0) local_unnamed_addr #1 {
  %2 = icmp eq ptr %0, null
  br i1 %2, label %18, label %.preheader.i

.preheader.i:                                     ; preds = %1
  %3 = getelementptr inbounds nuw i8, ptr %0, i64 56
  %4 = load i32, ptr %3, align 8, !tbaa !17
  %.not19.i = icmp eq i32 %4, 0
  %.pre = load ptr, ptr %0, align 8, !tbaa !14
  br i1 %.not19.i, label %OPENSSL_LH_flush.exit, label %.lr.ph17.i

.lr.ph17.i:                                       ; preds = %.preheader.i, %._crit_edge.i
  %5 = phi i32 [ %11, %._crit_edge.i ], [ %4, %.preheader.i ]
  %6 = phi ptr [ %12, %._crit_edge.i ], [ %.pre, %.preheader.i ]
  %indvars.iv.i = phi i64 [ %indvars.iv.next.i, %._crit_edge.i ], [ 0, %.preheader.i ]
  %7 = getelementptr inbounds nuw ptr, ptr %6, i64 %indvars.iv.i
  %8 = load ptr, ptr %7, align 8, !tbaa !25
  %.not14.i = icmp eq ptr %8, null
  br i1 %.not14.i, label %._crit_edge.i, label %.lr.ph.i

.lr.ph.i:                                         ; preds = %.lr.ph17.i, %.lr.ph.i
  %.01215.i = phi ptr [ %10, %.lr.ph.i ], [ %8, %.lr.ph17.i ]
  %9 = getelementptr inbounds nuw i8, ptr %.01215.i, i64 8
  %10 = load ptr, ptr %9, align 8, !tbaa !27
  tail call void @CRYPTO_free(ptr noundef nonnull %.01215.i, ptr noundef nonnull @.str, i32 noundef 108) #7
  %.not.i = icmp eq ptr %10, null
  br i1 %.not.i, label %._crit_edge.loopexit.i, label %.lr.ph.i, !llvm.loop !29

._crit_edge.loopexit.i:                           ; preds = %.lr.ph.i
  %.pre21.i = load ptr, ptr %0, align 8, !tbaa !14
  %.pre22.i = load i32, ptr %3, align 8, !tbaa !17
  br label %._crit_edge.i

._crit_edge.i:                                    ; preds = %._crit_edge.loopexit.i, %.lr.ph17.i
  %11 = phi i32 [ %.pre22.i, %._crit_edge.loopexit.i ], [ %5, %.lr.ph17.i ]
  %12 = phi ptr [ %.pre21.i, %._crit_edge.loopexit.i ], [ %6, %.lr.ph17.i ]
  %13 = getelementptr inbounds nuw ptr, ptr %12, i64 %indvars.iv.i
  store ptr null, ptr %13, align 8, !tbaa !25
  %indvars.iv.next.i = add nuw nsw i64 %indvars.iv.i, 1
  %14 = zext i32 %11 to i64
  %15 = icmp samesign ult i64 %indvars.iv.next.i, %14
  br i1 %15, label %.lr.ph17.i, label %OPENSSL_LH_flush.exit, !llvm.loop !30

OPENSSL_LH_flush.exit:                            ; preds = %._crit_edge.i, %.preheader.i
  %16 = phi ptr [ %.pre, %.preheader.i ], [ %12, %._crit_edge.i ]
  %17 = getelementptr inbounds nuw i8, ptr %0, i64 88
  store i64 0, ptr %17, align 8, !tbaa !31
  tail call void @CRYPTO_free(ptr noundef %16, ptr noundef nonnull @.str, i32 noundef 92) #7
  tail call void @CRYPTO_free(ptr noundef nonnull %0, ptr noundef nonnull @.str, i32 noundef 93) #7
  br label %18

18:                                               ; preds = %1, %OPENSSL_LH_flush.exit
  ret void
}